; Function Attrs: mustprogress uwtable
define hidden noundef ptr @pj_putp4p(ptr noundef %0) local_unnamed_addr #0 {
  %.not = icmp eq ptr %0, null
  br i1 %.not, label %12, label %2

2:                                                ; preds = %1
  %3 = tail call noalias dereferenceable_or_null(16) ptr @calloc(i64 noundef 1, i64 noundef 16) #4
  %4 = icmp eq ptr %3, null
  br i1 %4, label %5, label %7

5:                                                ; preds = %2
  %6 = tail call noundef ptr @_Z21pj_default_destructorP8PJconstsi(ptr noundef nonnull %0, i32 noundef 4096)
  br label %_Z35pj_projection_specific_setup_putp4pP8PJconsts.exit

7:                                                ; preds = %2
  %8 = getelementptr inbounds i8, ptr %0, i64 88
  store ptr %3, ptr %8, align 8
  store <2 x double> <double 0x3FEBF820199D5761, double 0x400F10E655340EFB>, ptr %3, align 8
  %9 = getelementptr inbounds i8, ptr %0, i64 216
  store double 0.000000e+00, ptr %9, align 8
  %10 = getelementptr inbounds i8, ptr %0, i64 112
  store ptr @_ZL16putp4p_s_inverse5PJ_XYP8PJconsts, ptr %10, align 8
  %11 = getelementptr inbounds i8, ptr %0, i64 104
  store ptr @_ZL16putp4p_s_forward5PJ_LPP8PJconsts, ptr %11, align 8
  br label %_Z35pj_projection_specific_setup_putp4pP8PJconsts.exit

12:                                               ; preds = %1
  %13 = tail call noundef ptr @_Z6pj_newv()
  %14 = icmp eq ptr %13, null
  br i1 %14, label %_Z35pj_projection_specific_setup_putp4pP8PJconsts.exit, label %15

15:                                               ; preds = %12
  %16 = getelementptr inbounds i8, ptr %13, i64 8
  store ptr @.str, ptr %16, align 8
  %17 = getelementptr inbounds i8, ptr %13, i64 16
  store ptr @_ZL10des_putp4p, ptr %17, align 8
  %18 = getelementptr inbounds i8, ptr %13, i64 360
  store i32 1, ptr %18, align 8
  %19 = getelementptr inbounds i8, ptr %13, i64 380
  store i32 4, ptr %19, align 4
  %20 = getelementptr inbounds i8, ptr %13, i64 384
  store i32 1, ptr %20, align 8
  br label %_Z35pj_projection_specific_setup_putp4pP8PJconsts.exit

_Z35pj_projection_specific_setup_putp4pP8PJconsts.exit: ; preds = %7, %5, %12, %15
  %.0 = phi ptr [ %13, %15 ], [ null, %12 ], [ %6, %5 ], [ %0, %7 ]
  ret ptr %.0
}